target datalayout = "e-m:e-p270:32:32-p271:32:32-p272:64:64-i64:64-i128:128-f80:128-n8:16:32:64-S128"
target triple = "x86_64-pc-linux-gnu"

@stderr = external global ptr, align 8
@.str.189 = private unnamed_addr constant [83 x i8] c"Empty and infinite sets are not supported with the systemd-dbus-api output format\0A\00", align 1
@.str.190 = private unnamed_addr constant [10 x i8] c"ay 0x%04x\00", align 1
@.str.191 = private unnamed_addr constant [8 x i8] c" 0x%02x\00", align 1

; Function Attrs: inlinehint nounwind uwtable
define internal i32 @hwloc_utils_systemd_asprintf(ptr noundef %0, ptr noalias noundef %1) #2 {
  %3 = alloca ptr, align 8
  %4 = alloca ptr, align 8
  %5 = alloca i32, align 4
  %6 = alloca i32, align 4
  %7 = alloca i32, align 4
  %8 = alloca i32, align 4
  %9 = alloca ptr, align 8
  %10 = alloca i64, align 8
  %11 = alloca i32, align 4
  store ptr %0, ptr %3, align 8, !tbaa !13
  store ptr %1, ptr %4, align 8, !tbaa !17
  call void @llvm.lifetime.start.p0(i64 4, ptr %5) #11
  %12 = load ptr, ptr %4, align 8, !tbaa !17
  %13 = call i32 @hwloc_bitmap_last(ptr noundef %12) #12
  store i32 %13, ptr %5, align 4, !tbaa !11
  %14 = load i32, ptr %5, align 4, !tbaa !11
  %15 = icmp eq i32 %14, -1
  br i1 %15, label %16, label %19

16:                                               ; preds = %2
  %17 = load ptr, ptr @stderr, align 8, !tbaa !9
  %18 = call i32 (ptr, ptr, ...) @fprintf(ptr noundef %17, ptr noundef @.str.189) #11
  call void @exit(i32 noundef 1) #13
  unreachable

19:                                               ; preds = %2
  call void @llvm.lifetime.start.p0(i64 4, ptr %6) #11
  %20 = load i32, ptr %5, align 4, !tbaa !11
  %21 = sdiv i32 %20, 8
  %22 = add nsw i32 %21, 1
  store i32 %22, ptr %6, align 4, !tbaa !11
  call void @llvm.lifetime.start.p0(i64 4, ptr %7) #11
  %23 = load i32, ptr %6, align 4, !tbaa !11
  %24 = mul nsw i32 5, %23
  %25 = add nsw i32 9, %24
  %26 = add nsw i32 %25, 1
  store i32 %26, ptr %7, align 4, !tbaa !11
  call void @llvm.lifetime.start.p0(i64 4, ptr %8) #11
  store i32 0, ptr %8, align 4, !tbaa !11
  call void @llvm.lifetime.start.p0(i64 8, ptr %9) #11
  %27 = load i32, ptr %7, align 4, !tbaa !11
  %28 = sext i32 %27 to i64
  %29 = call noalias ptr @malloc(i64 noundef %28) #15
  store ptr %29, ptr %9, align 8, !tbaa !4
  %30 = load ptr, ptr %9, align 8, !tbaa !4
  %31 = load ptr, ptr %3, align 8, !tbaa !13
  store ptr %30, ptr %31, align 8, !tbaa !4
  %32 = load ptr, ptr %9, align 8, !tbaa !4
  %33 = load i32, ptr %7, align 4, !tbaa !11
  %34 = sext i32 %33 to i64
  %35 = load i32, ptr %6, align 4, !tbaa !11
  %36 = call i32 (ptr, i64, ptr, ...) @snprintf(ptr noundef %32, i64 noundef %34, ptr noundef @.str.190, i32 noundef %35) #11
  store i32 %36, ptr %8, align 4, !tbaa !11
  call void @llvm.lifetime.start.p0(i64 8, ptr %10) #11
  store i64 0, ptr %10, align 8, !tbaa !15
  call void @llvm.lifetime.start.p0(i64 4, ptr %11) #11
  store i32 0, ptr %11, align 4, !tbaa !11
  br label %37

37:                                               ; preds = %65, %19
  %38 = load i32, ptr %11, align 4, !tbaa !11
  %39 = load i32, ptr %6, align 4, !tbaa !11
  %40 = icmp slt i32 %38, %39
  br i1 %40, label %42, label %41

41:                                               ; preds = %37
  call void @llvm.lifetime.end.p0(i64 4, ptr %11) #11
  br label %68

42:                                               ; preds = %37
  %43 = load i32, ptr %11, align 4, !tbaa !11
  %44 = srem i32 %43, 8
  %45 = icmp eq i32 %44, 0
  br i1 %45, label %46, label %51

46:                                               ; preds = %42
  %47 = load ptr, ptr %4, align 8, !tbaa !17
  %48 = load i32, ptr %11, align 4, !tbaa !11
  %49 = sdiv i32 %48, 8
  %50 = call i64 @hwloc_bitmap_to_ith_ulong(ptr noundef %47, i32 noundef %49) #12
  store i64 %50, ptr %10, align 8, !tbaa !15
  br label %51

51:                                               ; preds = %46, %42
  %52 = load ptr, ptr %9, align 8, !tbaa !4
  %53 = load i32, ptr %8, align 4, !tbaa !11
  %54 = sext i32 %53 to i64
  %55 = getelementptr inbounds i8, ptr %52, i64 %54
  %56 = load i64, ptr %10, align 8, !tbaa !15
  %57 = and i64 %56, 255
  %58 = trunc i64 %57 to i8
  %59 = zext i8 %58 to i32
  %60 = call i32 (ptr, i64, ptr, ...) @snprintf(ptr noundef %55, i64 noundef 6, ptr noundef @.str.191, i32 noundef %59) #11
  %61 = load i32, ptr %8, align 4, !tbaa !11
  %62 = add nsw i32 %61, %60
  store i32 %62, ptr %8, align 4, !tbaa !11
  %63 = load i64, ptr %10, align 8, !tbaa !15
  %64 = lshr i64 %63, 8
  store i64 %64, ptr %10, align 8, !tbaa !15
  br label %65

65:                                               ; preds = %51
  %66 = load i32, ptr %11, align 4, !tbaa !11
  %67 = add nsw i32 %66, 1
  store i32 %67, ptr %11, align 4, !tbaa !11
  br label %37, !llvm.loop !122

68:                                               ; preds = %41
  %69 = load i32, ptr %8, align 4, !tbaa !11
  call void @llvm.lifetime.end.p0(i64 8, ptr %10) #11
  call void @llvm.lifetime.end.p0(i64 8, ptr %9) #11
  call void @llvm.lifetime.end.p0(i64 4, ptr %8) #11
  call void @llvm.lifetime.end.p0(i64 4, ptr %7) #11
  call void @llvm.lifetime.end.p0(i64 4, ptr %6) #11
  call void @llvm.lifetime.end.p0(i64 4, ptr %5) #11
  ret i32 %69
}

; Function Attrs: inlinehint nounwind uwtable
define internal i32 @hwloc_utils_cpuset_format_asprintf(ptr noundef %0, ptr noundef %1, i32 noundef %2) #2 {
  %4 = alloca i32, align 4
  %5 = alloca ptr, align 8
  %6 = alloca ptr, align 8
  %7 = alloca i32, align 4
  store ptr %0, ptr %5, align 8, !tbaa !13
  store ptr %1, ptr %6, align 8, !tbaa !17
  store i32 %2, ptr %7, align 4, !tbaa !11
  %8 = load i32, ptr %7, align 4, !tbaa !11
  switch i32 %8, label %25 [
    i32 1, label %9
    i32 2, label %13
    i32 3, label %17
    i32 4, label %21
  ]

9:                                                ; preds = %3
  %10 = load ptr, ptr %5, align 8, !tbaa !13
  %11 = load ptr, ptr %6, align 8, !tbaa !17
  %12 = call i32 @hwloc_bitmap_asprintf(ptr noundef %10, ptr noundef %11)
  store i32 %12, ptr %4, align 4
  br label %26

13:                                               ; preds = %3
  %14 = load ptr, ptr %5, align 8, !tbaa !13
  %15 = load ptr, ptr %6, align 8, !tbaa !17
  %16 = call i32 @hwloc_bitmap_list_asprintf(ptr noundef %14, ptr noundef %15)
  store i32 %16, ptr %4, align 4
  br label %26

17:                                               ; preds = %3
  %18 = load ptr, ptr %5, align 8, !tbaa !13
  %19 = load ptr, ptr %6, align 8, !tbaa !17
  %20 = call i32 @hwloc_utils_systemd_asprintf(ptr noundef %18, ptr noundef %19)
  store i32 %20, ptr %4, align 4
  br label %26

21:                                               ; preds = %3
  %22 = load ptr, ptr %5, align 8, !tbaa !13
  %23 = load ptr, ptr %6, align 8, !tbaa !17
  %24 = call i32 @hwloc_bitmap_taskset_asprintf(ptr noundef %22, ptr noundef %23)
  store i32 %24, ptr %4, align 4
  br label %26

25:                                               ; preds = %3
  call void @abort() #13
  unreachable

26:                                               ; preds = %21, %17, %13, %9
  %27 = load i32, ptr %4, align 4
  ret i32 %27
}