; Function Attrs: inlinehint nounwind uwtable
define internal fastcc void @hwloc_utils_cpuset_format_asprintf(ptr noundef nonnull %0, ptr noundef %1, i32 noundef %2) unnamed_addr #14 {
  switch i32 %2, label %38 [
    i32 1, label %4
    i32 2, label %6
    i32 3, label %8
    i32 4, label %36
  ]

4:                                                ; preds = %3
  %5 = tail call i32 @hwloc_bitmap_asprintf(ptr noundef nonnull %0, ptr noundef %1) #25
  br label %hwloc_utils_systemd_asprintf.exit

6:                                                ; preds = %3
  %7 = tail call i32 @hwloc_bitmap_list_asprintf(ptr noundef nonnull %0, ptr noundef %1) #25
  br label %hwloc_utils_systemd_asprintf.exit

8:                                                ; preds = %3
  %9 = tail call i32 @hwloc_bitmap_last(ptr noundef %1) #26
  %10 = icmp eq i32 %9, -1
  br i1 %10, label %11, label %14

11:                                               ; preds = %8
  %12 = load ptr, ptr @stderr, align 8, !tbaa !9, !noalias !74
  %13 = tail call i64 @fwrite(ptr nonnull @.str.189, i64 82, i64 1, ptr %12) #30
  tail call void @exit(i32 noundef 1) #28
  unreachable

14:                                               ; preds = %8
  %15 = sdiv i32 %9, 8
  %16 = add nsw i32 %15, 1
  %17 = mul nsw i32 %16, 5
  %18 = add nsw i32 %17, 10
  %19 = sext i32 %18 to i64
  %20 = tail call noalias ptr @malloc(i64 noundef %19) #32
  store ptr %20, ptr %0, align 8, !tbaa !4, !noalias !74
  %21 = tail call i32 (ptr, i64, ptr, ...) @snprintf(ptr noundef %20, i64 noundef %19, ptr noundef nonnull @.str.190, i32 noundef %16) #25
  %.not24.i = icmp slt i32 %9, -7
  br i1 %.not24.i, label %hwloc_utils_systemd_asprintf.exit, label %.lr.ph.i

.lr.ph.i:                                         ; preds = %14, %27
  %.027.i = phi i32 [ %35, %27 ], [ 0, %14 ]
  %.02126.i = phi i64 [ %34, %27 ], [ 0, %14 ]
  %.02225.i = phi i32 [ %33, %27 ], [ %21, %14 ]
  %22 = and i32 %.027.i, 7
  %23 = icmp eq i32 %22, 0
  br i1 %23, label %24, label %27

24:                                               ; preds = %.lr.ph.i
  %25 = lshr exact i32 %.027.i, 3
  %26 = tail call i64 @hwloc_bitmap_to_ith_ulong(ptr noundef %1, i32 noundef %25) #26
  br label %27

27:                                               ; preds = %24, %.lr.ph.i
  %.1.i = phi i64 [ %26, %24 ], [ %.02126.i, %.lr.ph.i ]
  %28 = sext i32 %.02225.i to i64
  %29 = getelementptr inbounds i8, ptr %20, i64 %28
  %30 = trunc i64 %.1.i to i32
  %31 = and i32 %30, 255
  %32 = tail call i32 (ptr, i64, ptr, ...) @snprintf(ptr noundef nonnull dereferenceable(1) %29, i64 noundef 6, ptr noundef nonnull @.str.191, i32 noundef %31) #25
  %33 = add nsw i32 %32, %.02225.i
  %34 = lshr i64 %.1.i, 8
  %35 = add nuw nsw i32 %.027.i, 1
  %exitcond.not.i = icmp eq i32 %.027.i, %15
  br i1 %exitcond.not.i, label %hwloc_utils_systemd_asprintf.exit, label %.lr.ph.i, !llvm.loop !77

36:                                               ; preds = %3
  %37 = tail call i32 @hwloc_bitmap_taskset_asprintf(ptr noundef nonnull %0, ptr noundef %1) #25
  br label %hwloc_utils_systemd_asprintf.exit

38:                                               ; preds = %3
  tail call void @abort() #31
  unreachable

hwloc_utils_systemd_asprintf.exit:                ; preds = %27, %14, %36, %6, %4
  ret void
}